target datalayout = "e-m:e-p270:32:32-p271:32:32-p272:64:64-i64:64-i128:128-f80:128-n8:16:32:64-S128"
target triple = "x86_64-pc-linux-gnu"

%struct.pool_ctx = type { i64, ptr }
%struct.pool_chunk = type { i64, ptr }

; Function Attrs: alwaysinline nounwind uwtable
define internal zeroext i1 @size_is_pow2(i64 noundef %0) #4 {
  %2 = alloca i64, align 8
  store i64 %0, ptr %2, align 8, !tbaa !10
  %3 = load i64, ptr %2, align 8, !tbaa !10
  %4 = load i64, ptr %2, align 8, !tbaa !10
  %5 = sub i64 %4, 1
  %6 = and i64 %3, %5
  %7 = icmp eq i64 %6, 0
  ret i1 %7
}

; Function Attrs: alwaysinline nounwind uwtable
define internal i64 @size_align_up(i64 noundef %0, i64 noundef %1) #4 {
  %3 = alloca i64, align 8
  %4 = alloca i64, align 8
  %5 = alloca i64, align 8
  store i64 %0, ptr %4, align 8, !tbaa !10
  store i64 %1, ptr %5, align 8, !tbaa !10
  %6 = load i64, ptr %5, align 8, !tbaa !10
  %7 = call zeroext i1 @size_is_pow2(i64 noundef %6)
  br i1 %7, label %8, label %17

8:                                                ; preds = %2
  %9 = load i64, ptr %4, align 8, !tbaa !10
  %10 = load i64, ptr %5, align 8, !tbaa !10
  %11 = sub i64 %10, 1
  %12 = add i64 %9, %11
  %13 = load i64, ptr %5, align 8, !tbaa !10
  %14 = sub i64 %13, 1
  %15 = xor i64 %14, -1
  %16 = and i64 %12, %15
  store i64 %16, ptr %3, align 8
  br label %29

17:                                               ; preds = %2
  %18 = load i64, ptr %4, align 8, !tbaa !10
  %19 = load i64, ptr %5, align 8, !tbaa !10
  %20 = add i64 %18, %19
  %21 = load i64, ptr %4, align 8, !tbaa !10
  %22 = load i64, ptr %5, align 8, !tbaa !10
  %23 = add i64 %21, %22
  %24 = sub i64 %23, 1
  %25 = load i64, ptr %5, align 8, !tbaa !10
  %26 = urem i64 %24, %25
  %27 = sub i64 %20, %26
  %28 = sub i64 %27, 1
  store i64 %28, ptr %3, align 8
  br label %29

29:                                               ; preds = %17, %8
  %30 = load i64, ptr %3, align 8
  ret i64 %30
}

; Function Attrs: alwaysinline nounwind uwtable
define internal void @pool_size_align(ptr noundef %0) #4 {
  %2 = alloca ptr, align 8
  store ptr %0, ptr %2, align 8, !tbaa !107
  %3 = load ptr, ptr %2, align 8, !tbaa !107
  %4 = load i64, ptr %3, align 8, !tbaa !10
  %5 = call i64 @size_align_up(i64 noundef %4, i64 noundef 16)
  %6 = add i64 %5, 16
  %7 = load ptr, ptr %2, align 8, !tbaa !107
  store i64 %6, ptr %7, align 8, !tbaa !10
  ret void
}

; Function Attrs: nounwind uwtable
define internal ptr @pool_malloc(ptr noundef %0, i64 noundef %1) #0 {
  %3 = alloca ptr, align 8
  %4 = alloca ptr, align 8
  %5 = alloca i64, align 8
  %6 = alloca ptr, align 8
  %7 = alloca ptr, align 8
  %8 = alloca ptr, align 8
  %9 = alloca ptr, align 8
  %10 = alloca i32, align 4
  store ptr %0, ptr %4, align 8, !tbaa !9
  store i64 %1, ptr %5, align 8, !tbaa !10
  call void @llvm.lifetime.start.p0(i64 8, ptr %6) #13
  %11 = load ptr, ptr %4, align 8, !tbaa !9
  store ptr %11, ptr %6, align 8, !tbaa !13
  call void @llvm.lifetime.start.p0(i64 8, ptr %7) #13
  call void @llvm.lifetime.start.p0(i64 8, ptr %8) #13
  store ptr null, ptr %8, align 8, !tbaa !15
  call void @llvm.lifetime.start.p0(i64 8, ptr %9) #13
  %12 = load ptr, ptr %6, align 8, !tbaa !13
  %13 = getelementptr inbounds nuw %struct.pool_ctx, ptr %12, i32 0, i32 1
  %14 = load ptr, ptr %13, align 8, !tbaa !22
  store ptr %14, ptr %9, align 8, !tbaa !15
  %15 = load i64, ptr %5, align 8, !tbaa !10
  %16 = load ptr, ptr %6, align 8, !tbaa !13
  %17 = getelementptr inbounds nuw %struct.pool_ctx, ptr %16, i32 0, i32 0
  %18 = load i64, ptr %17, align 8, !tbaa !20
  %19 = icmp uge i64 %15, %18
  %20 = xor i1 %19, true
  %21 = xor i1 %20, true
  %22 = zext i1 %21 to i32
  %23 = sext i32 %22 to i64
  %24 = call i64 @llvm.expect.i64(i64 %23, i64 0)
  %25 = icmp ne i64 %24, 0
  br i1 %25, label %26, label %27

26:                                               ; preds = %2
  store ptr null, ptr %3, align 8
  store i32 1, ptr %10, align 4
  br label %87

27:                                               ; preds = %2
  call void @pool_size_align(ptr noundef %5)
  br label %28

28:                                               ; preds = %37, %27
  %29 = load ptr, ptr %9, align 8, !tbaa !15
  %30 = icmp ne ptr %29, null
  br i1 %30, label %31, label %86

31:                                               ; preds = %28
  %32 = load ptr, ptr %9, align 8, !tbaa !15
  %33 = getelementptr inbounds nuw %struct.pool_chunk, ptr %32, i32 0, i32 0
  %34 = load i64, ptr %33, align 8, !tbaa !17
  %35 = load i64, ptr %5, align 8, !tbaa !10
  %36 = icmp ult i64 %34, %35
  br i1 %36, label %37, label %42

37:                                               ; preds = %31
  %38 = load ptr, ptr %9, align 8, !tbaa !15
  store ptr %38, ptr %8, align 8, !tbaa !15
  %39 = load ptr, ptr %9, align 8, !tbaa !15
  %40 = getelementptr inbounds nuw %struct.pool_chunk, ptr %39, i32 0, i32 1
  %41 = load ptr, ptr %40, align 8, !tbaa !19
  store ptr %41, ptr %9, align 8, !tbaa !15
  br label %28, !llvm.loop !28

42:                                               ; preds = %31
  %43 = load ptr, ptr %9, align 8, !tbaa !15
  %44 = getelementptr inbounds nuw %struct.pool_chunk, ptr %43, i32 0, i32 0
  %45 = load i64, ptr %44, align 8, !tbaa !17
  %46 = load i64, ptr %5, align 8, !tbaa !10
  %47 = add i64 %46, 32
  %48 = icmp uge i64 %45, %47
  br i1 %48, label %49, label %68

49:                                               ; preds = %42
  %50 = load ptr, ptr %9, align 8, !tbaa !15
  %51 = load i64, ptr %5, align 8, !tbaa !10
  %52 = getelementptr inbounds nuw i8, ptr %50, i64 %51
  store ptr %52, ptr %7, align 8, !tbaa !15
  %53 = load ptr, ptr %9, align 8, !tbaa !15
  %54 = getelementptr inbounds nuw %struct.pool_chunk, ptr %53, i32 0, i32 0
  %55 = load i64, ptr %54, align 8, !tbaa !17
  %56 = load i64, ptr %5, align 8, !tbaa !10
  %57 = sub i64 %55, %56
  %58 = load ptr, ptr %7, align 8, !tbaa !15
  %59 = getelementptr inbounds nuw %struct.pool_chunk, ptr %58, i32 0, i32 0
  store i64 %57, ptr %59, align 8, !tbaa !17
  %60 = load ptr, ptr %9, align 8, !tbaa !15
  %61 = getelementptr inbounds nuw %struct.pool_chunk, ptr %60, i32 0, i32 1
  %62 = load ptr, ptr %61, align 8, !tbaa !19
  %63 = load ptr, ptr %7, align 8, !tbaa !15
  %64 = getelementptr inbounds nuw %struct.pool_chunk, ptr %63, i32 0, i32 1
  store ptr %62, ptr %64, align 8, !tbaa !19
  %65 = load i64, ptr %5, align 8, !tbaa !10
  %66 = load ptr, ptr %9, align 8, !tbaa !15
  %67 = getelementptr inbounds nuw %struct.pool_chunk, ptr %66, i32 0, i32 0
  store i64 %65, ptr %67, align 8, !tbaa !17
  br label %72

68:                                               ; preds = %42
  %69 = load ptr, ptr %9, align 8, !tbaa !15
  %70 = getelementptr inbounds nuw %struct.pool_chunk, ptr %69, i32 0, i32 1
  %71 = load ptr, ptr %70, align 8, !tbaa !19
  store ptr %71, ptr %7, align 8, !tbaa !15
  br label %72

72:                                               ; preds = %68, %49
  %73 = load ptr, ptr %8, align 8, !tbaa !15
  %74 = icmp ne ptr %73, null
  br i1 %74, label %75, label %79

75:                                               ; preds = %72
  %76 = load ptr, ptr %7, align 8, !tbaa !15
  %77 = load ptr, ptr %8, align 8, !tbaa !15
  %78 = getelementptr inbounds nuw %struct.pool_chunk, ptr %77, i32 0, i32 1
  store ptr %76, ptr %78, align 8, !tbaa !19
  br label %83

79:                                               ; preds = %72
  %80 = load ptr, ptr %7, align 8, !tbaa !15
  %81 = load ptr, ptr %6, align 8, !tbaa !13
  %82 = getelementptr inbounds nuw %struct.pool_ctx, ptr %81, i32 0, i32 1
  store ptr %80, ptr %82, align 8, !tbaa !22
  br label %83

83:                                               ; preds = %79, %75
  %84 = load ptr, ptr %9, align 8, !tbaa !15
  %85 = getelementptr inbounds %struct.pool_chunk, ptr %84, i64 1
  store ptr %85, ptr %3, align 8
  store i32 1, ptr %10, align 4
  br label %87

86:                                               ; preds = %28
  store ptr null, ptr %3, align 8
  store i32 1, ptr %10, align 4
  br label %87

87:                                               ; preds = %86, %83, %26
  call void @llvm.lifetime.end.p0(i64 8, ptr %9) #13
  call void @llvm.lifetime.end.p0(i64 8, ptr %8) #13
  call void @llvm.lifetime.end.p0(i64 8, ptr %7) #13
  call void @llvm.lifetime.end.p0(i64 8, ptr %6) #13
  %88 = load ptr, ptr %3, align 8
  ret ptr %88
}