; Function Attrs: nofree norecurse nosync nounwind memory(readwrite, inaccessiblemem: none) uwtable
define internal ptr @pool_malloc(ptr noundef captures(none) %0, i64 noundef %1) #4 {
  %3 = getelementptr inbounds nuw i8, ptr %0, i64 8
  %4 = load i64, ptr %0, align 8, !tbaa !15
  %.not = icmp ult i64 %1, %4
  br i1 %.not, label %5, label %.loopexit, !prof !23

5:                                                ; preds = %2
  %6 = add i64 %1, 15
  %7 = and i64 %6, -16
  %8 = add i64 %7, 16
  %.034 = load ptr, ptr %3, align 8, !tbaa !24
  %.not2735 = icmp eq ptr %.034, null
  br i1 %.not2735, label %.loopexit, label %.lr.ph.preheader

.lr.ph.preheader:                                 ; preds = %5
  %9 = load i64, ptr %.034, align 8, !tbaa !10
  %10 = icmp ult i64 %9, %8
  br i1 %10, label %.lr.ph48, label %.lr.ph._crit_edge

.lr.ph:                                           ; preds = %.lr.ph48
  %11 = load i64, ptr %.0, align 8, !tbaa !10
  %12 = icmp ult i64 %11, %8
  br i1 %12, label %.lr.ph48, label %.lr.ph._crit_edge, !llvm.loop !25

.lr.ph48:                                         ; preds = %.lr.ph.preheader, %.lr.ph
  %.03747 = phi ptr [ %.0, %.lr.ph ], [ %.034, %.lr.ph.preheader ]
  %13 = getelementptr inbounds nuw i8, ptr %.03747, i64 8
  %.0 = load ptr, ptr %13, align 8, !tbaa !24
  %.not27 = icmp eq ptr %.0, null
  br i1 %.not27, label %.loopexit, label %.lr.ph, !llvm.loop !25

.lr.ph._crit_edge:                                ; preds = %.lr.ph, %.lr.ph.preheader
  %.037.lcssa = phi ptr [ %.034, %.lr.ph.preheader ], [ %.0, %.lr.ph ]
  %.02236.lcssa = phi ptr [ null, %.lr.ph.preheader ], [ %.03747, %.lr.ph ]
  %.lcssa = phi i64 [ %9, %.lr.ph.preheader ], [ %11, %.lr.ph ]
  %14 = add i64 %7, 48
  %.not28 = icmp ult i64 %.lcssa, %14
  br i1 %.not28, label %21, label %15

15:                                               ; preds = %.lr.ph._crit_edge
  %16 = getelementptr inbounds nuw i8, ptr %.037.lcssa, i64 %8
  %17 = sub i64 %.lcssa, %8
  store i64 %17, ptr %16, align 8, !tbaa !10
  %18 = getelementptr inbounds nuw i8, ptr %.037.lcssa, i64 8
  %19 = load ptr, ptr %18, align 8, !tbaa !14
  %20 = getelementptr inbounds nuw i8, ptr %16, i64 8
  store ptr %19, ptr %20, align 8, !tbaa !14
  store i64 %8, ptr %.037.lcssa, align 8, !tbaa !10
  br label %24

21:                                               ; preds = %.lr.ph._crit_edge
  %22 = getelementptr inbounds nuw i8, ptr %.037.lcssa, i64 8
  %23 = load ptr, ptr %22, align 8, !tbaa !14
  br label %24

24:                                               ; preds = %21, %15
  %.023 = phi ptr [ %16, %15 ], [ %23, %21 ]
  %.not29 = icmp eq ptr %.02236.lcssa, null
  br i1 %.not29, label %27, label %25

25:                                               ; preds = %24
  %26 = getelementptr inbounds nuw i8, ptr %.02236.lcssa, i64 8
  store ptr %.023, ptr %26, align 8, !tbaa !14
  br label %28

27:                                               ; preds = %24
  store ptr %.023, ptr %3, align 8, !tbaa !17
  br label %28

28:                                               ; preds = %27, %25
  %29 = getelementptr inbounds nuw i8, ptr %.037.lcssa, i64 16
  br label %.loopexit

.loopexit:                                        ; preds = %.lr.ph48, %5, %2, %28
  %.024 = phi ptr [ %29, %28 ], [ null, %2 ], [ null, %5 ], [ null, %.lr.ph48 ]
  ret ptr %.024
}